; Function Attrs: nounwind uwtable
define void @Acb_ObjDeriveTfo(ptr noundef captures(none) %0, i32 noundef %1, i32 noundef %2, i32 noundef %3, ptr noundef writeonly captures(none) initializes((0, 8)) %4, ptr noundef writeonly captures(none) initializes((0, 8)) %5, i32 noundef %6) local_unnamed_addr #0 {
  %8 = tail call i32 @Acb_ObjLabelTfo(ptr noundef %0, i32 noundef %1, i32 noundef %2, i32 noundef %3, i32 noundef %6)
  %9 = tail call noalias dereferenceable_or_null(16) ptr @malloc(i64 noundef 16) #24
  %10 = getelementptr inbounds nuw i8, ptr %9, i64 4
  store i32 0, ptr %10, align 4, !tbaa !15
  store i32 16, ptr %9, align 8, !tbaa !31
  %11 = tail call noalias dereferenceable_or_null(64) ptr @malloc(i64 noundef 64) #24
  %12 = getelementptr inbounds nuw i8, ptr %9, i64 8
  store ptr %11, ptr %12, align 8, !tbaa !18
  store ptr %9, ptr %4, align 8, !tbaa !87
  %13 = tail call noalias dereferenceable_or_null(16) ptr @malloc(i64 noundef 16) #24
  %14 = getelementptr inbounds nuw i8, ptr %13, i64 4
  store i32 0, ptr %14, align 4, !tbaa !15
  store i32 16, ptr %13, align 8, !tbaa !31
  %15 = tail call noalias dereferenceable_or_null(64) ptr @malloc(i64 noundef 64) #24
  %16 = getelementptr inbounds nuw i8, ptr %13, i64 8
  store ptr %15, ptr %16, align 8, !tbaa !18
  store ptr %13, ptr %5, align 8, !tbaa !87
  %.not = icmp eq i32 %8, 0
  br i1 %.not, label %17, label %Vec_IntReverseOrder.exit19

17:                                               ; preds = %7
  %18 = getelementptr i8, ptr %0, i64 260
  %.val.i = load i32, ptr %18, align 4, !tbaa !15
  %19 = icmp slt i32 %.val.i, 1
  br i1 %19, label %20, label %Acb_NtkIncTravId.exit

20:                                               ; preds = %17
  %21 = getelementptr inbounds nuw i8, ptr %0, i64 256
  %22 = getelementptr inbounds nuw i8, ptr %0, i64 112
  %.val.i.i = load i32, ptr %22, align 8, !tbaa !12
  %23 = load i32, ptr %21, align 8, !tbaa !31
  %.not.i.i.i.i = icmp slt i32 %23, %.val.i.i
  br i1 %.not.i.i.i.i, label %24, label %Vec_IntGrow.exit.i.i.i

24:                                               ; preds = %20
  %25 = getelementptr inbounds nuw i8, ptr %0, i64 264
  %26 = load ptr, ptr %25, align 8, !tbaa !18
  %.not9.i.i.i.i = icmp eq ptr %26, null
  %27 = sext i32 %.val.i.i to i64
  %28 = shl nsw i64 %27, 2
  br i1 %.not9.i.i.i.i, label %31, label %29

29:                                               ; preds = %24
  %30 = tail call ptr @realloc(ptr noundef nonnull %26, i64 noundef %28) #23
  br label %33

31:                                               ; preds = %24
  %32 = tail call noalias ptr @malloc(i64 noundef %28) #24
  br label %33

33:                                               ; preds = %31, %29
  %34 = phi ptr [ %30, %29 ], [ %32, %31 ]
  store ptr %34, ptr %25, align 8, !tbaa !18
  store i32 %.val.i.i, ptr %21, align 8, !tbaa !31
  br label %Vec_IntGrow.exit.i.i.i

Vec_IntGrow.exit.i.i.i:                           ; preds = %33, %20
  %35 = icmp sgt i32 %.val.i.i, 0
  br i1 %35, label %.lr.ph.i.i.i, label %Acb_NtkCleanObjTravs.exit.i

.lr.ph.i.i.i:                                     ; preds = %Vec_IntGrow.exit.i.i.i
  %36 = getelementptr inbounds nuw i8, ptr %0, i64 264
  %37 = load ptr, ptr %36, align 8, !tbaa !18
  %wide.trip.count.i.i.i = zext nneg i32 %.val.i.i to i64
  %38 = shl nuw nsw i64 %wide.trip.count.i.i.i, 2
  tail call void @llvm.memset.p0.i64(ptr align 4 %37, i8 0, i64 %38, i1 false), !tbaa !19
  br label %Acb_NtkCleanObjTravs.exit.i

Acb_NtkCleanObjTravs.exit.i:                      ; preds = %.lr.ph.i.i.i, %Vec_IntGrow.exit.i.i.i
  store i32 %.val.i.i, ptr %18, align 4, !tbaa !15
  br label %Acb_NtkIncTravId.exit

Acb_NtkIncTravId.exit:                            ; preds = %17, %Acb_NtkCleanObjTravs.exit.i
  %39 = getelementptr inbounds nuw i8, ptr %0, i64 96
  %40 = load i32, ptr %39, align 8, !tbaa !73
  %41 = add nsw i32 %40, 1
  store i32 %41, ptr %39, align 8, !tbaa !73
  tail call void @Acb_ObjDeriveTfo_rec(ptr noundef nonnull %0, i32 noundef %1, ptr noundef nonnull %9, ptr noundef nonnull %13, i32 noundef %6)
  %42 = load ptr, ptr %12, align 8, !tbaa !18
  %43 = load i32, ptr %10, align 4, !tbaa !15
  %44 = add nsw i32 %43, -1
  store i32 %44, ptr %10, align 4, !tbaa !15
  %45 = icmp sgt i32 %43, 2
  br i1 %45, label %.lr.ph.i, label %Vec_IntReverseOrder.exit

.lr.ph.i:                                         ; preds = %Acb_NtkIncTravId.exit, %.lr.ph.i
  %indvars.iv.i = phi i64 [ %indvars.iv.next.i, %.lr.ph.i ], [ 0, %Acb_NtkIncTravId.exit ]
  %46 = phi i32 [ %59, %.lr.ph.i ], [ %44, %Acb_NtkIncTravId.exit ]
  %47 = getelementptr inbounds nuw i32, ptr %42, i64 %indvars.iv.i
  %48 = load i32, ptr %47, align 4, !tbaa !19
  %49 = trunc nuw nsw i64 %indvars.iv.i to i32
  %50 = xor i32 %49, -1
  %51 = add i32 %46, %50
  %52 = sext i32 %51 to i64
  %53 = getelementptr inbounds i32, ptr %42, i64 %52
  %54 = load i32, ptr %53, align 4, !tbaa !19
  store i32 %54, ptr %47, align 4, !tbaa !19
  %55 = load i32, ptr %10, align 4, !tbaa !15
  %56 = add i32 %55, %50
  %57 = sext i32 %56 to i64
  %58 = getelementptr inbounds i32, ptr %42, i64 %57
  store i32 %48, ptr %58, align 4, !tbaa !19
  %indvars.iv.next.i = add nuw nsw i64 %indvars.iv.i, 1
  %59 = load i32, ptr %10, align 4, !tbaa !15
  %60 = sdiv i32 %59, 2
  %61 = sext i32 %60 to i64
  %62 = icmp slt i64 %indvars.iv.next.i, %61
  br i1 %62, label %.lr.ph.i, label %Vec_IntReverseOrder.exit, !llvm.loop !88

Vec_IntReverseOrder.exit:                         ; preds = %.lr.ph.i, %Acb_NtkIncTravId.exit
  %63 = load i32, ptr %14, align 4, !tbaa !15
  %64 = icmp sgt i32 %63, 1
  br i1 %64, label %.lr.ph.i16, label %Vec_IntReverseOrder.exit19

.lr.ph.i16:                                       ; preds = %Vec_IntReverseOrder.exit
  %65 = load ptr, ptr %16, align 8, !tbaa !18
  br label %66

66:                                               ; preds = %66, %.lr.ph.i16
  %indvars.iv.i17 = phi i64 [ 0, %.lr.ph.i16 ], [ %indvars.iv.next.i18, %66 ]
  %67 = phi i32 [ %63, %.lr.ph.i16 ], [ %80, %66 ]
  %68 = getelementptr inbounds nuw i32, ptr %65, i64 %indvars.iv.i17
  %69 = load i32, ptr %68, align 4, !tbaa !19
  %70 = trunc nuw nsw i64 %indvars.iv.i17 to i32
  %71 = xor i32 %70, -1
  %72 = add i32 %67, %71
  %73 = sext i32 %72 to i64
  %74 = getelementptr inbounds i32, ptr %65, i64 %73
  %75 = load i32, ptr %74, align 4, !tbaa !19
  store i32 %75, ptr %68, align 4, !tbaa !19
  %76 = load i32, ptr %14, align 4, !tbaa !15
  %77 = add i32 %76, %71
  %78 = sext i32 %77 to i64
  %79 = getelementptr inbounds i32, ptr %65, i64 %78
  store i32 %69, ptr %79, align 4, !tbaa !19
  %indvars.iv.next.i18 = add nuw nsw i64 %indvars.iv.i17, 1
  %80 = load i32, ptr %14, align 4, !tbaa !15
  %81 = sdiv i32 %80, 2
  %82 = sext i32 %81 to i64
  %83 = icmp slt i64 %indvars.iv.next.i18, %82
  br i1 %83, label %66, label %Vec_IntReverseOrder.exit19, !llvm.loop !88

Vec_IntReverseOrder.exit19:                       ; preds = %66, %Vec_IntReverseOrder.exit, %7
  ret void
}